target datalayout = "e-m:e-p270:32:32-p271:32:32-p272:64:64-i64:64-i128:128-f80:128-n8:16:32:64-S128"
target triple = "x86_64-unknown-linux-gnu"

%"class.cvc5::internal::smt::SetDefaults" = type <{ %"class.cvc5::internal::EnvObj", i8, [7 x i8] }>
%"class.cvc5::internal::EnvObj" = type { ptr, ptr }

@_ZTVN4cvc58internal3smt11SetDefaultsE = linkonce_odr hidden unnamed_addr constant { [4 x ptr] } { [4 x ptr] [ptr null, ptr @_ZTIN4cvc58internal3smt11SetDefaultsE, ptr @_ZN4cvc58internal3smt11SetDefaultsD2Ev, ptr @_ZN4cvc58internal3smt11SetDefaultsD0Ev] }, comdat, align 8

; Function Attrs: mustprogress uwtable
define hidden void @_ZN4cvc58internal3smt11SetDefaultsC2ERNS0_3EnvEb(ptr noundef nonnull align 8 dereferenceable(17) %this, ptr noundef nonnull align 8 dereferenceable(576) %env, i1 noundef zeroext %isInternalSubsolver) unnamed_addr #4 align 2 {
entry:
  %this.addr = alloca ptr, align 8
  %env.addr = alloca ptr, align 8
  %isInternalSubsolver.addr = alloca i8, align 1
  store ptr %this, ptr %this.addr, align 8
  store ptr %env, ptr %env.addr, align 8
  %frombool = zext i1 %isInternalSubsolver to i8
  store i8 %frombool, ptr %isInternalSubsolver.addr, align 1
  %this1 = load ptr, ptr %this.addr, align 8
  %0 = load ptr, ptr %env.addr, align 8
  call void @_ZN4cvc58internal6EnvObjC2ERNS0_3EnvE(ptr noundef nonnull align 8 dereferenceable(16) %this1, ptr noundef nonnull align 8 dereferenceable(576) %0)
  store ptr getelementptr inbounds ({ [4 x ptr] }, ptr @_ZTVN4cvc58internal3smt11SetDefaultsE, i32 0, i32 0, i32 2), ptr %this1, align 8
  %d_isInternalSubsolver = getelementptr inbounds %"class.cvc5::internal::smt::SetDefaults", ptr %this1, i32 0, i32 1
  %1 = load i8, ptr %isInternalSubsolver.addr, align 1
  %tobool = trunc i8 %1 to i1
  %frombool2 = zext i1 %tobool to i8
  store i8 %frombool2, ptr %d_isInternalSubsolver, align 8
  ret void
}