; Function Attrs: mustprogress uwtable
define hidden void @_ZN4cvc58internal3smt11SetDefaultsC2ERNS0_3EnvEb(ptr noundef nonnull align 8 dereferenceable(17) %this, ptr noundef nonnull align 8 dereferenceable(576) %env, i1 noundef zeroext %isInternalSubsolver) unnamed_addr #3 align 2 {
entry:
  %frombool = zext i1 %isInternalSubsolver to i8
  tail call void @_ZN4cvc58internal6EnvObjC2ERNS0_3EnvE(ptr noundef nonnull align 8 dereferenceable(16) %this, ptr noundef nonnull align 8 dereferenceable(576) %env)
  store ptr getelementptr inbounds ({ [4 x ptr] }, ptr @_ZTVN4cvc58internal3smt11SetDefaultsE, i64 0, i32 0, i64 2), ptr %this, align 8
  %d_isInternalSubsolver = getelementptr inbounds i8, ptr %this, i64 16
  store i8 %frombool, ptr %d_isInternalSubsolver, align 8
  ret void
}